target datalayout = "e-m:e-p270:32:32-p271:32:32-p272:64:64-i64:64-i128:128-f80:128-n8:16:32:64-S128"
target triple = "x86_64-pc-linux-gnu"

%struct.Proto = type { i8, i8, i8, i8, i8, i8, i8, i8, ptr, ptr, ptr, ptr, ptr, i64, ptr, ptr, ptr, ptr, ptr, ptr, ptr, ptr, ptr, ptr, i32, i32, i32, i32, i32, i32, i32, i32, i32, i32 }

; Function Attrs: mustprogress nounwind uwtable
define hidden noundef i32 @_Z12luaG_getlineP5Protoi(ptr noundef %0, i32 noundef %1) #2 {
  %3 = alloca i32, align 4
  %4 = alloca ptr, align 8
  %5 = alloca i32, align 4
  store ptr %0, ptr %4, align 8, !tbaa !27
  store i32 %1, ptr %5, align 4, !tbaa !9
  %6 = load ptr, ptr %4, align 8, !tbaa !27
  %7 = getelementptr inbounds nuw %struct.Proto, ptr %6, i32 0, i32 14
  %8 = load ptr, ptr %7, align 8, !tbaa !94
  %9 = icmp ne ptr %8, null
  br i1 %9, label %11, label %10

10:                                               ; preds = %2
  store i32 0, ptr %3, align 4
  br label %32

11:                                               ; preds = %2
  %12 = load ptr, ptr %4, align 8, !tbaa !27
  %13 = getelementptr inbounds nuw %struct.Proto, ptr %12, i32 0, i32 15
  %14 = load ptr, ptr %13, align 8, !tbaa !106
  %15 = load i32, ptr %5, align 4, !tbaa !9
  %16 = load ptr, ptr %4, align 8, !tbaa !27
  %17 = getelementptr inbounds nuw %struct.Proto, ptr %16, i32 0, i32 30
  %18 = load i32, ptr %17, align 8, !tbaa !107
  %19 = ashr i32 %15, %18
  %20 = sext i32 %19 to i64
  %21 = getelementptr inbounds i32, ptr %14, i64 %20
  %22 = load i32, ptr %21, align 4, !tbaa !9
  %23 = load ptr, ptr %4, align 8, !tbaa !27
  %24 = getelementptr inbounds nuw %struct.Proto, ptr %23, i32 0, i32 14
  %25 = load ptr, ptr %24, align 8, !tbaa !94
  %26 = load i32, ptr %5, align 4, !tbaa !9
  %27 = sext i32 %26 to i64
  %28 = getelementptr inbounds i8, ptr %25, i64 %27
  %29 = load i8, ptr %28, align 1, !tbaa !37
  %30 = zext i8 %29 to i32
  %31 = add nsw i32 %22, %30
  store i32 %31, ptr %3, align 4
  br label %32

32:                                               ; preds = %11, %10
  %33 = load i32, ptr %3, align 4
  ret i32 %33
}