; Function Attrs: mustprogress nofree norecurse nosync nounwind willreturn memory(read, inaccessiblemem: none) uwtable
define hidden noundef i32 @_Z12luaG_getlineP5Protoi(ptr noundef readonly captures(none) %0, i32 noundef %1) local_unnamed_addr #9 {
  %3 = getelementptr inbounds nuw i8, ptr %0, i64 56
  %4 = load ptr, ptr %3, align 8, !tbaa !57
  %.not = icmp eq ptr %4, null
  br i1 %.not, label %19, label %5

5:                                                ; preds = %2
  %6 = getelementptr inbounds nuw i8, ptr %0, i64 64
  %7 = load ptr, ptr %6, align 8, !tbaa !58
  %8 = getelementptr inbounds nuw i8, ptr %0, i64 160
  %9 = load i32, ptr %8, align 8, !tbaa !59
  %10 = ashr i32 %1, %9
  %11 = sext i32 %10 to i64
  %12 = getelementptr inbounds i32, ptr %7, i64 %11
  %13 = load i32, ptr %12, align 4, !tbaa !46
  %14 = sext i32 %1 to i64
  %15 = getelementptr inbounds i8, ptr %4, i64 %14
  %16 = load i8, ptr %15, align 1, !tbaa !26
  %17 = zext i8 %16 to i32
  %18 = add nsw i32 %13, %17
  br label %19

19:                                               ; preds = %2, %5
  %.0 = phi i32 [ %18, %5 ], [ 0, %2 ]
  ret i32 %.0
}